; Function Attrs: mustprogress uwtable
define void @_ZN3net25LocalStrikeRegisterClient27VerifyNonceIsValidAndUniqueEN4base16BasicStringPieceINSt7__cxx1112basic_stringIcSt11char_traitsIcESaIcEEEEENS_12QuicWallTimeEPNS_20StrikeRegisterClient14ResultCallbackE(ptr noundef nonnull align 8 dereferenceable(104) %0, ptr %1, i64 %2, i64 %3, ptr noundef %4) unnamed_addr #0 align 2 personality ptr @__gxx_personality_v0 {
  %6 = alloca %"class.net::QuicWallTime", align 8
  store i64 %3, ptr %6, align 8
  %.not = icmp eq i64 %2, 32
  br i1 %.not, label %7, label %_ZN4base8AutoLockD2Ev.exit

7:                                                ; preds = %5
  %8 = getelementptr inbounds nuw i8, ptr %0, i64 8
  tail call void @_ZN4base8internal8LockImpl4LockEv(ptr noundef nonnull align 8 dereferenceable(40) %8)
  %9 = invoke noundef i64 @_ZNK3net12QuicWallTime13ToUNIXSecondsEv(ptr noundef nonnull align 8 dereferenceable(8) %6)
          to label %10 unwind label %18

10:                                               ; preds = %7
  %11 = getelementptr inbounds nuw i8, ptr %0, i64 48
  %12 = trunc i64 %9 to i32
  %13 = invoke noundef i32 @_ZN3net14StrikeRegister6InsertEPKhj(ptr noundef nonnull align 8 dereferenceable(56) %11, ptr noundef %1, i32 noundef %12)
          to label %14 unwind label %18

14:                                               ; preds = %10
  invoke void @_ZN4base8internal8LockImpl6UnlockEv(ptr noundef nonnull align 8 dereferenceable(40) %8)
          to label %_ZN4base8AutoLockD2Ev.exit unwind label %15

15:                                               ; preds = %14
  %16 = landingpad { ptr, i32 }
          catch ptr null
  %17 = extractvalue { ptr, i32 } %16, 0
  call void @__clang_call_terminate(ptr %17) #9
  unreachable

18:                                               ; preds = %10, %7
  %19 = landingpad { ptr, i32 }
          cleanup
  invoke void @_ZN4base8internal8LockImpl6UnlockEv(ptr noundef nonnull align 8 dereferenceable(40) %8)
          to label %_ZN4base8AutoLockD2Ev.exit5 unwind label %20

20:                                               ; preds = %18
  %21 = landingpad { ptr, i32 }
          catch ptr null
  %22 = extractvalue { ptr, i32 } %21, 0
  call void @__clang_call_terminate(ptr %22) #9
  unreachable

_ZN4base8AutoLockD2Ev.exit5:                      ; preds = %18
  resume { ptr, i32 } %19

_ZN4base8AutoLockD2Ev.exit:                       ; preds = %14, %5
  %.0 = phi i32 [ 2, %5 ], [ %13, %14 ]
  %23 = icmp eq i32 %.0, 0
  %24 = load ptr, ptr %4, align 8, !tbaa !3
  %25 = getelementptr inbounds nuw i8, ptr %24, i64 16
  %26 = load ptr, ptr %25, align 8
  call void %26(ptr noundef nonnull align 8 dereferenceable(8) %4, i1 noundef zeroext %23, i32 noundef %.0)
  %27 = load ptr, ptr %4, align 8, !tbaa !3
  %28 = getelementptr inbounds nuw i8, ptr %27, i64 8
  %29 = load ptr, ptr %28, align 8
  call void %29(ptr noundef nonnull align 8 dereferenceable(8) %4) #8
  ret void
}